target datalayout = "e-m:e-p270:32:32-p271:32:32-p272:64:64-i64:64-i128:128-f80:128-n8:16:32:64-S128"
target triple = "x86_64-unknown-linux-gnu"

%class.btDiscreteDynamicsWorld = type <{ %class.btDynamicsWorld, %class.btAlignedObjectArray.0, ptr, ptr, ptr, %class.btAlignedObjectArray.0, %class.btAlignedObjectArray.4, %class.btVector3, float, float, i8, i8, i8, i8, [4 x i8], %class.btAlignedObjectArray.8, i32, i8, [3 x i8], %class.btAlignedObjectArray.12, %class.btSpinMutex, [4 x i8] }>
%class.btDynamicsWorld = type { %class.btCollisionWorld.base, ptr, ptr, ptr, %struct.btContactSolverInfo }
%class.btCollisionWorld.base = type <{ ptr, %class.btAlignedObjectArray, ptr, %struct.btDispatcherInfo, ptr, ptr, i8 }>
%class.btAlignedObjectArray = type <{ %class.btAlignedAllocator, [3 x i8], i32, i32, [4 x i8], ptr, i8, [7 x i8] }>
%class.btAlignedAllocator = type { i8 }
%struct.btDispatcherInfo = type <{ float, i32, i32, float, i8, [7 x i8], ptr, i8, i8, i8, i8, float, i8, [3 x i8], float, i8, [7 x i8] }>
%struct.btContactSolverInfo = type { %struct.btContactSolverInfoData }
%struct.btContactSolverInfoData = type { float, float, float, float, float, i32, float, float, float, float, float, float, float, float, float, float, i32, float, float, float, float, float, i32, i32, i32, float, float, float, float, i8, i8, i32, i32 }
%class.btAlignedObjectArray.0 = type <{ %class.btAlignedAllocator.1, [3 x i8], i32, i32, [4 x i8], ptr, i8, [7 x i8] }>
%class.btAlignedAllocator.1 = type { i8 }
%class.btAlignedObjectArray.4 = type <{ %class.btAlignedAllocator.5, [3 x i8], i32, i32, [4 x i8], ptr, i8, [7 x i8] }>
%class.btAlignedAllocator.5 = type { i8 }
%class.btVector3 = type { [4 x float] }
%class.btAlignedObjectArray.8 = type <{ %class.btAlignedAllocator.9, [3 x i8], i32, i32, [4 x i8], ptr, i8, [7 x i8] }>
%class.btAlignedAllocator.9 = type { i8 }
%class.btAlignedObjectArray.12 = type <{ %class.btAlignedAllocator.13, [3 x i8], i32, i32, [4 x i8], ptr, i8, [7 x i8] }>
%class.btAlignedAllocator.13 = type { i8 }
%class.btSpinMutex = type { i32 }
%class.btCollisionObject = type <{ ptr, %class.btTransform, %class.btTransform, %class.btVector3, %class.btVector3, %class.btVector3, i32, float, ptr, ptr, ptr, ptr, i32, i32, i32, i32, i32, float, float, float, float, float, float, float, i32, [4 x i8], ptr, i32, i32, i32, float, float, float, i32, [4 x i8], %class.btAlignedObjectArray.36, i32, %class.btVector3, [4 x i8] }>
%class.btTransform = type { %class.btMatrix3x3, %class.btVector3 }
%class.btMatrix3x3 = type { [3 x %class.btVector3] }
%class.btAlignedObjectArray.36 = type <{ %class.btAlignedAllocator.37, [3 x i8], i32, i32, [4 x i8], ptr, i8, [7 x i8] }>
%class.btAlignedAllocator.37 = type { i8 }
%class.CProfileSample = type { i8 }

@.str.12 = private unnamed_addr constant [26 x i8] c"predictUnconstraintMotion\00", align 1

; Function Attrs: mustprogress nounwind uwtable
define linkonce_odr dso_local noundef nonnull align 4 dereferenceable(64) ptr @_ZN17btCollisionObject30getInterpolationWorldTransformEv(ptr noundef nonnull align 8 dereferenceable(372) %this) #1 comdat align 2 {
entry:
  %this.addr = alloca ptr, align 8
  store ptr %this, ptr %this.addr, align 8
  %this1 = load ptr, ptr %this.addr, align 8
  %m_interpolationWorldTransform = getelementptr inbounds %class.btCollisionObject, ptr %this1, i32 0, i32 2
  ret ptr %m_interpolationWorldTransform
}

; Function Attrs: mustprogress nounwind uwtable
define linkonce_odr dso_local noundef zeroext i1 @_ZNK17btCollisionObject25isStaticOrKinematicObjectEv(ptr noundef nonnull align 8 dereferenceable(372) %this) #1 comdat align 2 {
entry:
  %this.addr = alloca ptr, align 8
  store ptr %this, ptr %this.addr, align 8
  %this1 = load ptr, ptr %this.addr, align 8
  %m_collisionFlags = getelementptr inbounds %class.btCollisionObject, ptr %this1, i32 0, i32 12
  %0 = load i32, ptr %m_collisionFlags, align 8
  %and = and i32 %0, 3
  %cmp = icmp ne i32 %and, 0
  ret i1 %cmp
}

; Function Attrs: mustprogress nounwind uwtable
define linkonce_odr dso_local noundef nonnull align 8 dereferenceable(8) ptr @_ZN20btAlignedObjectArrayIP11btRigidBodyEixEi(ptr noundef nonnull align 8 dereferenceable(25) %this, i32 noundef %n) #1 comdat align 2 {
entry:
  %this.addr = alloca ptr, align 8
  %n.addr = alloca i32, align 4
  store ptr %this, ptr %this.addr, align 8
  store i32 %n, ptr %n.addr, align 4
  %this1 = load ptr, ptr %this.addr, align 8
  %m_data = getelementptr inbounds %class.btAlignedObjectArray.4, ptr %this1, i32 0, i32 5
  %0 = load ptr, ptr %m_data, align 8
  %1 = load i32, ptr %n.addr, align 4
  %idxprom = sext i32 %1 to i64
  %arrayidx = getelementptr inbounds ptr, ptr %0, i64 %idxprom
  ret ptr %arrayidx
}

; Function Attrs: mustprogress nounwind uwtable
define linkonce_odr dso_local noundef i32 @_ZNK20btAlignedObjectArrayIP11btRigidBodyE4sizeEv(ptr noundef nonnull align 8 dereferenceable(25) %this) #1 comdat align 2 {
entry:
  %this.addr = alloca ptr, align 8
  store ptr %this, ptr %this.addr, align 8
  %this1 = load ptr, ptr %this.addr, align 8
  %m_size = getelementptr inbounds %class.btAlignedObjectArray.4, ptr %this1, i32 0, i32 2
  %0 = load i32, ptr %m_size, align 4
  ret i32 %0
}

; Function Attrs: mustprogress uwtable
define dso_local void @_ZN23btDiscreteDynamicsWorld25predictUnconstraintMotionEf(ptr noundef nonnull align 8 dereferenceable(508) %this, float noundef %timeStep) unnamed_addr #2 align 2 personality ptr @__gxx_personality_v0 {
entry:
  %this.addr = alloca ptr, align 8
  %timeStep.addr = alloca float, align 4
  %__profile = alloca %class.CProfileSample, align 1
  %i = alloca i32, align 4
  %exn.slot = alloca ptr, align 8
  %ehselector.slot = alloca i32, align 4
  %body = alloca ptr, align 8
  store ptr %this, ptr %this.addr, align 8
  store float %timeStep, ptr %timeStep.addr, align 4
  %this1 = load ptr, ptr %this.addr, align 8
  call void @_ZN14CProfileSampleC1EPKc(ptr noundef nonnull align 1 dereferenceable(1) %__profile, ptr noundef @.str.12)
  store i32 0, ptr %i, align 4
  br label %for.cond

for.cond:                                         ; preds = %for.inc, %entry
  %0 = load i32, ptr %i, align 4
  %m_nonStaticRigidBodies = getelementptr inbounds %class.btDiscreteDynamicsWorld, ptr %this1, i32 0, i32 6
  %call = invoke noundef i32 @_ZNK20btAlignedObjectArrayIP11btRigidBodyE4sizeEv(ptr noundef nonnull align 8 dereferenceable(25) %m_nonStaticRigidBodies)
          to label %invoke.cont unwind label %lpad

invoke.cont:                                      ; preds = %for.cond
  %cmp = icmp slt i32 %0, %call
  br i1 %cmp, label %for.body, label %for.end

for.body:                                         ; preds = %invoke.cont
  %m_nonStaticRigidBodies2 = getelementptr inbounds %class.btDiscreteDynamicsWorld, ptr %this1, i32 0, i32 6
  %1 = load i32, ptr %i, align 4
  %call4 = invoke noundef nonnull align 8 dereferenceable(8) ptr @_ZN20btAlignedObjectArrayIP11btRigidBodyEixEi(ptr noundef nonnull align 8 dereferenceable(25) %m_nonStaticRigidBodies2, i32 noundef %1)
          to label %invoke.cont3 unwind label %lpad

invoke.cont3:                                     ; preds = %for.body
  %2 = load ptr, ptr %call4, align 8
  store ptr %2, ptr %body, align 8
  %3 = load ptr, ptr %body, align 8
  %call6 = invoke noundef zeroext i1 @_ZNK17btCollisionObject25isStaticOrKinematicObjectEv(ptr noundef nonnull align 8 dereferenceable(372) %3)
          to label %invoke.cont5 unwind label %lpad

invoke.cont5:                                     ; preds = %invoke.cont3
  br i1 %call6, label %if.end, label %if.then

if.then:                                          ; preds = %invoke.cont5
  %4 = load ptr, ptr %body, align 8
  %5 = load float, ptr %timeStep.addr, align 4
  invoke void @_ZN11btRigidBody12applyDampingEf(ptr noundef nonnull align 8 dereferenceable(744) %4, float noundef %5)
          to label %invoke.cont7 unwind label %lpad

invoke.cont7:                                     ; preds = %if.then
  %6 = load ptr, ptr %body, align 8
  %7 = load float, ptr %timeStep.addr, align 4
  %8 = load ptr, ptr %body, align 8
  %call9 = invoke noundef nonnull align 4 dereferenceable(64) ptr @_ZN17btCollisionObject30getInterpolationWorldTransformEv(ptr noundef nonnull align 8 dereferenceable(372) %8)
          to label %invoke.cont8 unwind label %lpad

invoke.cont8:                                     ; preds = %invoke.cont7
  invoke void @_ZN11btRigidBody26predictIntegratedTransformEfR11btTransform(ptr noundef nonnull align 8 dereferenceable(744) %6, float noundef %7, ptr noundef nonnull align 4 dereferenceable(64) %call9)
          to label %invoke.cont10 unwind label %lpad

invoke.cont10:                                    ; preds = %invoke.cont8
  br label %if.end

lpad:                                             ; preds = %invoke.cont8, %invoke.cont7, %if.then, %invoke.cont3, %for.body, %for.cond
  %9 = landingpad { ptr, i32 }
          cleanup
  %10 = extractvalue { ptr, i32 } %9, 0
  store ptr %10, ptr %exn.slot, align 8
  %11 = extractvalue { ptr, i32 } %9, 1
  store i32 %11, ptr %ehselector.slot, align 4
  call void @_ZN14CProfileSampleD1Ev(ptr noundef nonnull align 1 dereferenceable(1) %__profile) #12
  br label %eh.resume

if.end:                                           ; preds = %invoke.cont10, %invoke.cont5
  br label %for.inc

for.inc:                                          ; preds = %if.end
  %12 = load i32, ptr %i, align 4
  %inc = add nsw i32 %12, 1
  store i32 %inc, ptr %i, align 4
  br label %for.cond, !llvm.loop !27

for.end:                                          ; preds = %invoke.cont
  call void @_ZN14CProfileSampleD1Ev(ptr noundef nonnull align 1 dereferenceable(1) %__profile) #12
  ret void

eh.resume:                                        ; preds = %lpad
  %exn = load ptr, ptr %exn.slot, align 8
  %sel = load i32, ptr %ehselector.slot, align 4
  %lpad.val = insertvalue { ptr, i32 } poison, ptr %exn, 0
  %lpad.val11 = insertvalue { ptr, i32 } %lpad.val, i32 %sel, 1
  resume { ptr, i32 } %lpad.val11
}