; Function Attrs: mustprogress uwtable
define dso_local void @_ZN23btDiscreteDynamicsWorld25predictUnconstraintMotionEf(ptr nocapture noundef nonnull readonly align 8 dereferenceable(508) %this, float noundef %timeStep) unnamed_addr #0 align 2 personality ptr @__gxx_personality_v0 {
entry:
  %__profile = alloca %class.CProfileSample, align 1
  call void @_ZN14CProfileSampleC1EPKc(ptr noundef nonnull align 1 dereferenceable(1) %__profile, ptr noundef nonnull @.str.12)
  %m_size.i = getelementptr inbounds i8, ptr %this, i64 372
  %0 = load i32, ptr %m_size.i, align 4
  %cmp7 = icmp sgt i32 %0, 0
  br i1 %cmp7, label %for.body.lr.ph, label %for.end

for.body.lr.ph:                                   ; preds = %entry
  %m_data.i = getelementptr inbounds i8, ptr %this, i64 384
  br label %for.body

for.body:                                         ; preds = %for.body.lr.ph, %for.inc
  %1 = phi i32 [ %0, %for.body.lr.ph ], [ %6, %for.inc ]
  %indvars.iv = phi i64 [ 0, %for.body.lr.ph ], [ %indvars.iv.next, %for.inc ]
  %2 = load ptr, ptr %m_data.i, align 8
  %arrayidx.i = getelementptr inbounds ptr, ptr %2, i64 %indvars.iv
  %3 = load ptr, ptr %arrayidx.i, align 8
  %m_collisionFlags.i = getelementptr inbounds i8, ptr %3, i64 224
  %4 = load i32, ptr %m_collisionFlags.i, align 8
  %and.i = and i32 %4, 3
  %cmp.i.not = icmp eq i32 %and.i, 0
  br i1 %cmp.i.not, label %if.then, label %for.inc

if.then:                                          ; preds = %for.body
  invoke void @_ZN11btRigidBody12applyDampingEf(ptr noundef nonnull align 8 dereferenceable(744) %3, float noundef %timeStep)
          to label %invoke.cont7 unwind label %lpad

invoke.cont7:                                     ; preds = %if.then
  %m_interpolationWorldTransform.i = getelementptr inbounds i8, ptr %3, i64 72
  invoke void @_ZN11btRigidBody26predictIntegratedTransformEfR11btTransform(ptr noundef nonnull align 8 dereferenceable(744) %3, float noundef %timeStep, ptr noundef nonnull align 4 dereferenceable(64) %m_interpolationWorldTransform.i)
          to label %invoke.cont7.for.inc_crit_edge unwind label %lpad

invoke.cont7.for.inc_crit_edge:                   ; preds = %invoke.cont7
  %.pre = load i32, ptr %m_size.i, align 4
  br label %for.inc

lpad:                                             ; preds = %invoke.cont7, %if.then
  %5 = landingpad { ptr, i32 }
          cleanup
  call void @_ZN14CProfileSampleD1Ev(ptr noundef nonnull align 1 dereferenceable(1) %__profile) #18
  resume { ptr, i32 } %5

for.inc:                                          ; preds = %invoke.cont7.for.inc_crit_edge, %for.body
  %6 = phi i32 [ %.pre, %invoke.cont7.for.inc_crit_edge ], [ %1, %for.body ]
  %indvars.iv.next = add nuw nsw i64 %indvars.iv, 1
  %7 = sext i32 %6 to i64
  %cmp = icmp slt i64 %indvars.iv.next, %7
  br i1 %cmp, label %for.body, label %for.end, !llvm.loop !42

for.end:                                          ; preds = %for.inc, %entry
  call void @_ZN14CProfileSampleD1Ev(ptr noundef nonnull align 1 dereferenceable(1) %__profile) #18
  ret void
}